target datalayout = "e-m:e-p270:32:32-p271:32:32-p272:64:64-i64:64-i128:128-f80:128-n8:16:32:64-S128"
target triple = "x86_64-pc-linux-gnu"

%struct.TwoPhaseStateData = type { ptr, i32, [0 x ptr] }
%struct.GlobalTransactionData = type { ptr, i32, i64, i64, i64, i32, i32, i32, i8, i8, i8, [200 x i8] }
%struct.pg_atomic_uint32 = type { i32 }
%struct.LWLock = type { i16, %struct.pg_atomic_uint32, %struct.proclist_head }
%struct.proclist_head = type { i32, i32 }
%union.LWLockPadded = type { %struct.LWLock, [112 x i8] }
%struct.xl_xact_prepare = type { i32, i32, i32, i32, i64, i32, i32, i32, i32, i32, i32, i32, i8, i16, i64, i64 }

@TwoPhaseState = internal global ptr null, align 8
@MainLWLockArray = external global ptr, align 8

; Function Attrs: nounwind uwtable
define dso_local zeroext i1 @LookupGXact(ptr noundef %0, i64 noundef %1, i64 noundef %2) #0 {
  %4 = alloca ptr, align 8
  %5 = alloca i64, align 8
  %6 = alloca i64, align 8
  %7 = alloca i32, align 4
  %8 = alloca i8, align 1
  %9 = alloca ptr, align 8
  %10 = alloca ptr, align 8
  %11 = alloca ptr, align 8
  %12 = alloca i32, align 4
  store ptr %0, ptr %4, align 8
  store i64 %1, ptr %5, align 8
  store i64 %2, ptr %6, align 8
  call void @llvm.lifetime.start.p0(i64 4, ptr %7) #12
  call void @llvm.lifetime.start.p0(i64 1, ptr %8) #12
  store i8 0, ptr %8, align 1
  %13 = load ptr, ptr @MainLWLockArray, align 8
  %14 = getelementptr inbounds %union.LWLockPadded, ptr %13, i64 18
  %15 = call zeroext i1 @LWLockAcquire(ptr noundef %14, i32 noundef 1)
  store i32 0, ptr %7, align 4
  br label %16

16:                                               ; preds = %78, %3
  %17 = load i32, ptr %7, align 4
  %18 = load ptr, ptr @TwoPhaseState, align 8
  %19 = getelementptr inbounds nuw %struct.TwoPhaseStateData, ptr %18, i32 0, i32 1
  %20 = load i32, ptr %19, align 8
  %21 = icmp slt i32 %17, %20
  br i1 %21, label %22, label %81

22:                                               ; preds = %16
  call void @llvm.lifetime.start.p0(i64 8, ptr %9) #12
  %23 = load ptr, ptr @TwoPhaseState, align 8
  %24 = getelementptr inbounds nuw %struct.TwoPhaseStateData, ptr %23, i32 0, i32 2
  %25 = load i32, ptr %7, align 4
  %26 = sext i32 %25 to i64
  %27 = getelementptr inbounds [0 x ptr], ptr %24, i64 0, i64 %26
  %28 = load ptr, ptr %27, align 8
  store ptr %28, ptr %9, align 8
  %29 = load ptr, ptr %9, align 8
  %30 = getelementptr inbounds nuw %struct.GlobalTransactionData, ptr %29, i32 0, i32 8
  %31 = load i8, ptr %30, align 4, !range !4, !noundef !5
  %32 = trunc i8 %31 to i1
  br i1 %32, label %33, label %74

33:                                               ; preds = %22
  %34 = load ptr, ptr %9, align 8
  %35 = getelementptr inbounds nuw %struct.GlobalTransactionData, ptr %34, i32 0, i32 11
  %36 = getelementptr inbounds [200 x i8], ptr %35, i64 0, i64 0
  %37 = load ptr, ptr %4, align 8
  %38 = call i32 @strcmp(ptr noundef %36, ptr noundef %37) #14
  %39 = icmp eq i32 %38, 0
  br i1 %39, label %40, label %74

40:                                               ; preds = %33
  call void @llvm.lifetime.start.p0(i64 8, ptr %10) #12
  call void @llvm.lifetime.start.p0(i64 8, ptr %11) #12
  %41 = load ptr, ptr %9, align 8
  %42 = getelementptr inbounds nuw %struct.GlobalTransactionData, ptr %41, i32 0, i32 9
  %43 = load i8, ptr %42, align 1, !range !4, !noundef !5
  %44 = trunc i8 %43 to i1
  br i1 %44, label %45, label %50

45:                                               ; preds = %40
  %46 = load ptr, ptr %9, align 8
  %47 = getelementptr inbounds nuw %struct.GlobalTransactionData, ptr %46, i32 0, i32 5
  %48 = load i32, ptr %47, align 8
  %49 = call ptr @ReadTwoPhaseFile(i32 noundef %48, i1 noundef zeroext false)
  store ptr %49, ptr %10, align 8
  br label %54

50:                                               ; preds = %40
  %51 = load ptr, ptr %9, align 8
  %52 = getelementptr inbounds nuw %struct.GlobalTransactionData, ptr %51, i32 0, i32 3
  %53 = load i64, ptr %52, align 8
  call void @XlogReadTwoPhaseData(i64 noundef %53, ptr noundef %10, ptr noundef null)
  br label %54

54:                                               ; preds = %50, %45
  %55 = load ptr, ptr %10, align 8
  store ptr %55, ptr %11, align 8
  %56 = load ptr, ptr %11, align 8
  %57 = getelementptr inbounds nuw %struct.xl_xact_prepare, ptr %56, i32 0, i32 14
  %58 = load i64, ptr %57, align 8
  %59 = load i64, ptr %5, align 8
  %60 = icmp eq i64 %58, %59
  br i1 %60, label %61, label %69

61:                                               ; preds = %54
  %62 = load ptr, ptr %11, align 8
  %63 = getelementptr inbounds nuw %struct.xl_xact_prepare, ptr %62, i32 0, i32 15
  %64 = load i64, ptr %63, align 8
  %65 = load i64, ptr %6, align 8
  %66 = icmp eq i64 %64, %65
  br i1 %66, label %67, label %69

67:                                               ; preds = %61
  store i8 1, ptr %8, align 1
  %68 = load ptr, ptr %10, align 8
  call void @pfree(ptr noundef %68)
  store i32 2, ptr %12, align 4
  br label %71

69:                                               ; preds = %61, %54
  %70 = load ptr, ptr %10, align 8
  call void @pfree(ptr noundef %70)
  store i32 0, ptr %12, align 4
  br label %71

71:                                               ; preds = %69, %67
  call void @llvm.lifetime.end.p0(i64 8, ptr %11) #12
  call void @llvm.lifetime.end.p0(i64 8, ptr %10) #12
  %72 = load i32, ptr %12, align 4
  switch i32 %72, label %75 [
    i32 0, label %73
  ]

73:                                               ; preds = %71
  br label %74

74:                                               ; preds = %73, %33, %22
  store i32 0, ptr %12, align 4
  br label %75

75:                                               ; preds = %74, %71
  call void @llvm.lifetime.end.p0(i64 8, ptr %9) #12
  %76 = load i32, ptr %12, align 4
  switch i32 %76, label %86 [
    i32 0, label %77
    i32 2, label %81
  ]

77:                                               ; preds = %75
  br label %78

78:                                               ; preds = %77
  %79 = load i32, ptr %7, align 4
  %80 = add i32 %79, 1
  store i32 %80, ptr %7, align 4
  br label %16, !llvm.loop !25

81:                                               ; preds = %75, %16
  %82 = load ptr, ptr @MainLWLockArray, align 8
  %83 = getelementptr inbounds %union.LWLockPadded, ptr %82, i64 18
  call void @LWLockRelease(ptr noundef %83)
  %84 = load i8, ptr %8, align 1, !range !4, !noundef !5
  %85 = trunc i8 %84 to i1
  store i32 1, ptr %12, align 4
  call void @llvm.lifetime.end.p0(i64 1, ptr %8) #12
  call void @llvm.lifetime.end.p0(i64 4, ptr %7) #12
  ret i1 %85

86:                                               ; preds = %75
  unreachable
}