; Function Attrs: nounwind uwtable
define dso_local noundef zeroext i1 @LookupGXact(ptr noundef readonly captures(none) %0, i64 noundef %1, i64 noundef %2) local_unnamed_addr #0 {
  %4 = alloca ptr, align 8
  %5 = load ptr, ptr @MainLWLockArray, align 8
  %6 = getelementptr inbounds nuw i8, ptr %5, i64 2304
  %7 = tail call zeroext i1 @LWLockAcquire(ptr noundef nonnull %6, i32 noundef 1) #14
  %8 = load ptr, ptr @TwoPhaseState, align 8
  %9 = getelementptr inbounds nuw i8, ptr %8, i64 8
  %10 = load i32, ptr %9, align 8
  %11 = icmp sgt i32 %10, 0
  br i1 %11, label %.lr.ph, label %.loopexit

.lr.ph:                                           ; preds = %3, %45
  %12 = phi ptr [ %46, %45 ], [ %8, %3 ]
  %indvars.iv = phi i64 [ %indvars.iv.next, %45 ], [ 0, %3 ]
  %13 = getelementptr inbounds nuw i8, ptr %12, i64 16
  %14 = getelementptr inbounds nuw [0 x ptr], ptr %13, i64 0, i64 %indvars.iv
  %15 = load ptr, ptr %14, align 8
  %16 = getelementptr inbounds nuw i8, ptr %15, i64 52
  %17 = load i8, ptr %16, align 4, !range !4, !noundef !5
  %18 = trunc nuw i8 %17 to i1
  br i1 %18, label %19, label %45

19:                                               ; preds = %.lr.ph
  %20 = getelementptr inbounds nuw i8, ptr %15, i64 55
  %21 = tail call i32 @strcmp(ptr noundef nonnull dereferenceable(1) %20, ptr noundef nonnull dereferenceable(1) %0) #16
  %22 = icmp eq i32 %21, 0
  br i1 %22, label %23, label %45

23:                                               ; preds = %19
  call void @llvm.lifetime.start.p0(i64 8, ptr nonnull %4) #14
  %24 = getelementptr inbounds nuw i8, ptr %15, i64 53
  %25 = load i8, ptr %24, align 1, !range !4, !noundef !5
  %26 = trunc nuw i8 %25 to i1
  br i1 %26, label %27, label %31

27:                                               ; preds = %23
  %28 = getelementptr inbounds nuw i8, ptr %15, i64 40
  %29 = load i32, ptr %28, align 8
  %30 = tail call fastcc ptr @ReadTwoPhaseFile(i32 noundef %29, i1 noundef zeroext false)
  br label %34

31:                                               ; preds = %23
  %32 = getelementptr inbounds nuw i8, ptr %15, i64 24
  %33 = load i64, ptr %32, align 8
  call fastcc void @XlogReadTwoPhaseData(i64 noundef %33, ptr noundef %4, ptr noundef null)
  %.pre = load ptr, ptr %4, align 8
  br label %34

34:                                               ; preds = %31, %27
  %35 = phi ptr [ %.pre, %31 ], [ %30, %27 ]
  %36 = getelementptr inbounds nuw i8, ptr %35, i64 56
  %37 = load i64, ptr %36, align 8
  %38 = icmp eq i64 %37, %1
  br i1 %38, label %39, label %43

39:                                               ; preds = %34
  %40 = getelementptr inbounds nuw i8, ptr %35, i64 64
  %41 = load i64, ptr %40, align 8
  %42 = icmp eq i64 %41, %2
  br i1 %42, label %44, label %43

43:                                               ; preds = %34, %39
  tail call void @pfree(ptr noundef nonnull %35) #14
  call void @llvm.lifetime.end.p0(i64 8, ptr nonnull %4) #14
  %.pre32 = load ptr, ptr @TwoPhaseState, align 8
  br label %45

44:                                               ; preds = %39
  tail call void @pfree(ptr noundef nonnull %35) #14
  call void @llvm.lifetime.end.p0(i64 8, ptr nonnull %4) #14
  br label %.loopexit

45:                                               ; preds = %19, %.lr.ph, %43
  %46 = phi ptr [ %12, %19 ], [ %12, %.lr.ph ], [ %.pre32, %43 ]
  %indvars.iv.next = add nuw nsw i64 %indvars.iv, 1
  %47 = getelementptr inbounds nuw i8, ptr %46, i64 8
  %48 = load i32, ptr %47, align 8
  %49 = sext i32 %48 to i64
  %50 = icmp slt i64 %indvars.iv.next, %49
  br i1 %50, label %.lr.ph, label %.loopexit, !llvm.loop !25

.loopexit:                                        ; preds = %45, %3, %44
  %51 = phi i1 [ true, %44 ], [ false, %3 ], [ false, %45 ]
  %52 = load ptr, ptr @MainLWLockArray, align 8
  %53 = getelementptr inbounds nuw i8, ptr %52, i64 2304
  tail call void @LWLockRelease(ptr noundef nonnull %53) #14
  ret i1 %51
}